; Function Attrs: mustprogress uwtable
define dso_local noundef ptr @_ZN11HullLibrary16allocateTriangleEiii(ptr noundef nonnull align 8 captures(none) dereferenceable(64) %0, i32 noundef %1, i32 noundef %2, i32 noundef %3) local_unnamed_addr #4 align 2 {
  %5 = tail call noundef ptr @_Z22btAlignedAllocInternalmi(i64 noundef 36, i32 noundef 16)
  store i32 %1, ptr %5, align 4, !tbaa !61
  %6 = getelementptr inbounds nuw i8, ptr %5, i64 4
  store i32 %2, ptr %6, align 4, !tbaa !62
  %7 = getelementptr inbounds nuw i8, ptr %5, i64 8
  store i32 %3, ptr %7, align 4, !tbaa !63
  %8 = getelementptr inbounds nuw i8, ptr %5, i64 12
  store i32 -1, ptr %8, align 4, !tbaa !61
  %9 = getelementptr inbounds nuw i8, ptr %5, i64 16
  store i32 -1, ptr %9, align 4, !tbaa !62
  %10 = getelementptr inbounds nuw i8, ptr %5, i64 20
  store i32 -1, ptr %10, align 4, !tbaa !63
  %11 = getelementptr inbounds nuw i8, ptr %5, i64 28
  store i32 -1, ptr %11, align 4, !tbaa !64
  %12 = getelementptr inbounds nuw i8, ptr %5, i64 32
  store float 0.000000e+00, ptr %12, align 4, !tbaa !65
  %13 = getelementptr inbounds nuw i8, ptr %0, i64 4
  %14 = load i32, ptr %13, align 4, !tbaa !66
  %15 = getelementptr inbounds nuw i8, ptr %5, i64 24
  store i32 %14, ptr %15, align 4, !tbaa !58
  %16 = getelementptr inbounds nuw i8, ptr %0, i64 8
  %17 = load i32, ptr %16, align 8, !tbaa !67
  %18 = icmp eq i32 %14, %17
  br i1 %18, label %19, label %_ZN20btAlignedObjectArrayIP14btHullTriangleE9push_backERKS1_.exit

19:                                               ; preds = %4
  %.not.i.i = icmp eq i32 %14, 0
  %20 = shl nsw i32 %14, 1
  %21 = select i1 %.not.i.i, i32 1, i32 %20
  %22 = icmp slt i32 %14, %21
  br i1 %22, label %23, label %_ZN20btAlignedObjectArrayIP14btHullTriangleE9push_backERKS1_.exit

23:                                               ; preds = %19
  %.not.i.i.i = icmp eq i32 %21, 0
  br i1 %.not.i.i.i, label %_ZN20btAlignedObjectArrayIP14btHullTriangleE8allocateEi.exit.i.i, label %24

24:                                               ; preds = %23
  %25 = sext i32 %21 to i64
  %26 = shl nsw i64 %25, 3
  %27 = tail call noundef ptr @_Z22btAlignedAllocInternalmi(i64 noundef %26, i32 noundef 16)
  %.pre.i = load i32, ptr %13, align 4, !tbaa !66
  br label %_ZN20btAlignedObjectArrayIP14btHullTriangleE8allocateEi.exit.i.i

_ZN20btAlignedObjectArrayIP14btHullTriangleE8allocateEi.exit.i.i: ; preds = %24, %23
  %28 = phi i32 [ %.pre.i, %24 ], [ %14, %23 ]
  %.0.i.i.i = phi ptr [ %27, %24 ], [ null, %23 ]
  %29 = icmp sgt i32 %28, 0
  %30 = getelementptr inbounds nuw i8, ptr %0, i64 16
  %31 = load ptr, ptr %30, align 8, !tbaa !51
  br i1 %29, label %.lr.ph.i.i.i, label %_ZNK20btAlignedObjectArrayIP14btHullTriangleE4copyEiiPS1_.exit.i.i

.lr.ph.i.i.i:                                     ; preds = %_ZN20btAlignedObjectArrayIP14btHullTriangleE8allocateEi.exit.i.i
  %wide.trip.count.i.i.i = zext nneg i32 %28 to i64
  br label %32

32:                                               ; preds = %32, %.lr.ph.i.i.i
  %indvars.iv.i.i.i = phi i64 [ 0, %.lr.ph.i.i.i ], [ %indvars.iv.next.i.i.i, %32 ]
  %33 = getelementptr inbounds nuw ptr, ptr %.0.i.i.i, i64 %indvars.iv.i.i.i
  %34 = getelementptr inbounds nuw ptr, ptr %31, i64 %indvars.iv.i.i.i
  %35 = load ptr, ptr %34, align 8, !tbaa !55
  store ptr %35, ptr %33, align 8, !tbaa !55
  %indvars.iv.next.i.i.i = add nuw nsw i64 %indvars.iv.i.i.i, 1
  %exitcond.not.i.i.i = icmp eq i64 %indvars.iv.next.i.i.i, %wide.trip.count.i.i.i
  br i1 %exitcond.not.i.i.i, label %_ZNK20btAlignedObjectArrayIP14btHullTriangleE4copyEiiPS1_.exit.thread.i.i, label %32, !llvm.loop !68

_ZNK20btAlignedObjectArrayIP14btHullTriangleE4copyEiiPS1_.exit.i.i: ; preds = %_ZN20btAlignedObjectArrayIP14btHullTriangleE8allocateEi.exit.i.i
  %.not.i5.i.i = icmp eq ptr %31, null
  br i1 %.not.i5.i.i, label %_ZN20btAlignedObjectArrayIP14btHullTriangleE10deallocateEv.exit.i.i, label %_ZNK20btAlignedObjectArrayIP14btHullTriangleE4copyEiiPS1_.exit.thread.i.i

_ZNK20btAlignedObjectArrayIP14btHullTriangleE4copyEiiPS1_.exit.thread.i.i: ; preds = %32, %_ZNK20btAlignedObjectArrayIP14btHullTriangleE4copyEiiPS1_.exit.i.i
  %36 = getelementptr inbounds nuw i8, ptr %0, i64 24
  %37 = load i8, ptr %36, align 8, !tbaa !69, !range !39, !noundef !40
  %38 = trunc nuw i8 %37 to i1
  br i1 %38, label %39, label %_ZN20btAlignedObjectArrayIP14btHullTriangleE10deallocateEv.exit.i.i

39:                                               ; preds = %_ZNK20btAlignedObjectArrayIP14btHullTriangleE4copyEiiPS1_.exit.thread.i.i
  tail call void @_Z21btAlignedFreeInternalPv(ptr noundef nonnull %31)
  %.pre2.pre.pre.i = load i32, ptr %13, align 4, !tbaa !66
  br label %_ZN20btAlignedObjectArrayIP14btHullTriangleE10deallocateEv.exit.i.i

_ZN20btAlignedObjectArrayIP14btHullTriangleE10deallocateEv.exit.i.i: ; preds = %39, %_ZNK20btAlignedObjectArrayIP14btHullTriangleE4copyEiiPS1_.exit.thread.i.i, %_ZNK20btAlignedObjectArrayIP14btHullTriangleE4copyEiiPS1_.exit.i.i
  %.pre2.i = phi i32 [ %28, %_ZNK20btAlignedObjectArrayIP14btHullTriangleE4copyEiiPS1_.exit.i.i ], [ %.pre2.pre.pre.i, %39 ], [ %28, %_ZNK20btAlignedObjectArrayIP14btHullTriangleE4copyEiiPS1_.exit.thread.i.i ]
  %40 = getelementptr inbounds nuw i8, ptr %0, i64 24
  store i8 1, ptr %40, align 8, !tbaa !69
  store ptr %.0.i.i.i, ptr %30, align 8, !tbaa !51
  store i32 %21, ptr %16, align 8, !tbaa !67
  br label %_ZN20btAlignedObjectArrayIP14btHullTriangleE9push_backERKS1_.exit

_ZN20btAlignedObjectArrayIP14btHullTriangleE9push_backERKS1_.exit: ; preds = %4, %19, %_ZN20btAlignedObjectArrayIP14btHullTriangleE10deallocateEv.exit.i.i
  %41 = phi i32 [ %.pre2.i, %_ZN20btAlignedObjectArrayIP14btHullTriangleE10deallocateEv.exit.i.i ], [ %14, %19 ], [ %14, %4 ]
  %42 = getelementptr inbounds nuw i8, ptr %0, i64 16
  %43 = load ptr, ptr %42, align 8, !tbaa !51
  %44 = sext i32 %41 to i64
  %45 = getelementptr inbounds ptr, ptr %43, i64 %44
  store ptr %5, ptr %45, align 8, !tbaa !55
  %46 = add nsw i32 %41, 1
  store i32 %46, ptr %13, align 4, !tbaa !66
  ret ptr %5
}